(dp1
S'scram_twistd'
p2
ccopy_reg
_reconstructor
p3
(ctwisted.plugin
CachedDropin
p4
c__builtin__
object
p5
NtRp6
(dp7
S'moduleName'
p8
S'twisted.plugins.scram_twistd'
p9
sS'description'
p10
S'\nPlugin hook module for twistd service.\n'
p11
sS'plugins'
p12
(lp13
g3
(ctwisted.plugin
CachedPlugin
p14
g5
NtRp15
(dp16
S'provided'
p17
(lp18
ctwisted.plugin
IPlugin
p19
actwisted.application.service
IServiceMaker
p20
asS'dropin'
p21
g6
sS'name'
p22
S'scramplugin'
p23
sg10
S'\n    Trivial glue class to expose a twistd service.\n    '
p24
sbasbs.